; Function Attrs: nounwind uwtable
define internal range(i32 0, 2) i32 @test_empty_configuration() #1 {
  %1 = tail call noalias ptr @CRYPTO_zalloc(i64 noundef 24, ptr noundef nonnull @.str.14, i32 noundef 114) #3
  %2 = tail call i32 @test_ptr(ptr noundef nonnull @.str.14, i32 noundef 114, ptr noundef nonnull @.str.23, ptr noundef %1) #3
  %.not.i = icmp eq i32 %2, 0
  br i1 %.not.i, label %set_up.exit.thread, label %3

3:                                                ; preds = %0
  store ptr @.str.19, ptr %1, align 8, !tbaa !9
  %4 = tail call ptr @SSL_TEST_CTX_new(ptr noundef null) #3
  %5 = getelementptr inbounds nuw i8, ptr %1, i64 16
  store ptr %4, ptr %5, align 8, !tbaa !12
  %6 = tail call i32 @test_ptr(ptr noundef nonnull @.str.14, i32 noundef 117, ptr noundef nonnull @.str.24, ptr noundef %4) #3
  %.not6.i = icmp eq i32 %6, 0
  br i1 %.not6.i, label %set_up.exit.thread.sink.split, label %set_up.exit

set_up.exit:                                      ; preds = %3
  %7 = getelementptr inbounds nuw i8, ptr %1, i64 8
  store ptr @.str.22, ptr %7, align 8, !tbaa !13
  %8 = load ptr, ptr %5, align 8, !tbaa !12
  %9 = getelementptr inbounds nuw i8, ptr %8, i64 424
  store i32 0, ptr %9, align 8, !tbaa !14
  %10 = tail call fastcc i32 @execute_test(ptr noundef %1)
  %11 = load ptr, ptr %5, align 8, !tbaa !12
  tail call void @SSL_TEST_CTX_free(ptr noundef %11) #3
  br label %set_up.exit.thread.sink.split

set_up.exit.thread.sink.split:                    ; preds = %3, %set_up.exit
  %.sink = phi i32 [ 143, %set_up.exit ], [ 118, %3 ]
  %.07.ph = phi i32 [ %10, %set_up.exit ], [ 0, %3 ]
  tail call void @CRYPTO_free(ptr noundef nonnull %1, ptr noundef nonnull @.str.14, i32 noundef %.sink) #3
  br label %set_up.exit.thread

set_up.exit.thread:                               ; preds = %set_up.exit.thread.sink.split, %0
  %.07 = phi i32 [ 0, %0 ], [ %.07.ph, %set_up.exit.thread.sink.split ]
  ret i32 %.07
}